target datalayout = "e-m:e-p270:32:32-p271:32:32-p272:64:64-i64:64-i128:128-f80:128-n8:16:32:64-S128"
target triple = "x86_64-pc-linux-gnu"

@.str.1516 = private unnamed_addr constant [24 x i8] c"Invalid uint length %d!\00", align 1
@.str.1579 = private unnamed_addr constant [4 x i8] c"%lu\00", align 1

; Function Attrs: null_pointer_is_valid sspstrong uwtable
define internal i32 @format_amqp_1_0_uint(ptr noundef %0, i32 noundef %1, i32 noundef %2, ptr noundef %3) #0 {
  %5 = alloca i32, align 4
  %6 = alloca ptr, align 8
  %7 = alloca i32, align 4
  %8 = alloca i32, align 4
  %9 = alloca ptr, align 8
  %10 = alloca i64, align 8
  %11 = alloca i32, align 4
  store ptr %0, ptr %6, align 8
  store i32 %1, ptr %7, align 4
  store i32 %2, ptr %8, align 4
  store ptr %3, ptr %9, align 8
  call void @llvm.lifetime.start.p0(i64 8, ptr %10) #11
  %12 = load i32, ptr %8, align 4
  %13 = icmp eq i32 %12, 0
  br i1 %13, label %14, label %15

14:                                               ; preds = %4
  store i64 0, ptr %10, align 8
  br label %56

15:                                               ; preds = %4
  %16 = load i32, ptr %8, align 4
  %17 = icmp eq i32 %16, 1
  br i1 %17, label %18, label %23

18:                                               ; preds = %15
  %19 = load ptr, ptr %6, align 8
  %20 = load i32, ptr %7, align 4
  %21 = call zeroext i8 @tvb_get_uint8(ptr noundef %19, i32 noundef %20)
  %22 = zext i8 %21 to i64
  store i64 %22, ptr %10, align 8
  br label %55

23:                                               ; preds = %15
  %24 = load i32, ptr %8, align 4
  %25 = icmp eq i32 %24, 2
  br i1 %25, label %26, label %31

26:                                               ; preds = %23
  %27 = load ptr, ptr %6, align 8
  %28 = load i32, ptr %7, align 4
  %29 = call zeroext i16 @tvb_get_ntohs(ptr noundef %27, i32 noundef %28)
  %30 = zext i16 %29 to i64
  store i64 %30, ptr %10, align 8
  br label %54

31:                                               ; preds = %23
  %32 = load i32, ptr %8, align 4
  %33 = icmp eq i32 %32, 4
  br i1 %33, label %34, label %39

34:                                               ; preds = %31
  %35 = load ptr, ptr %6, align 8
  %36 = load i32, ptr %7, align 4
  %37 = call i32 @tvb_get_ntohl(ptr noundef %35, i32 noundef %36)
  %38 = zext i32 %37 to i64
  store i64 %38, ptr %10, align 8
  br label %53

39:                                               ; preds = %31
  %40 = load i32, ptr %8, align 4
  %41 = icmp eq i32 %40, 8
  br i1 %41, label %42, label %46

42:                                               ; preds = %39
  %43 = load ptr, ptr %6, align 8
  %44 = load i32, ptr %7, align 4
  %45 = call i64 @tvb_get_ntoh64(ptr noundef %43, i32 noundef %44)
  store i64 %45, ptr %10, align 8
  br label %52

46:                                               ; preds = %39
  %47 = call ptr @wmem_packet_scope()
  %48 = load i32, ptr %8, align 4
  %49 = call noalias ptr (ptr, ptr, ...) @wmem_strdup_printf(ptr noundef %47, ptr noundef @.str.1516, i32 noundef %48)
  %50 = load ptr, ptr %9, align 8
  store ptr %49, ptr %50, align 8
  %51 = load i32, ptr %8, align 4
  store i32 %51, ptr %5, align 4
  store i32 1, ptr %11, align 4
  br label %62

52:                                               ; preds = %42
  br label %53

53:                                               ; preds = %52, %34
  br label %54

54:                                               ; preds = %53, %26
  br label %55

55:                                               ; preds = %54, %18
  br label %56

56:                                               ; preds = %55, %14
  %57 = call ptr @wmem_packet_scope()
  %58 = load i64, ptr %10, align 8
  %59 = call noalias ptr (ptr, ptr, ...) @wmem_strdup_printf(ptr noundef %57, ptr noundef @.str.1579, i64 noundef %58)
  %60 = load ptr, ptr %9, align 8
  store ptr %59, ptr %60, align 8
  %61 = load i32, ptr %8, align 4
  store i32 %61, ptr %5, align 4
  store i32 1, ptr %11, align 4
  br label %62

62:                                               ; preds = %56, %46
  call void @llvm.lifetime.end.p0(i64 8, ptr %10) #11
  %63 = load i32, ptr %5, align 4
  ret i32 %63
}