; Function Attrs: null_pointer_is_valid sspstrong uwtable
define internal noundef i32 @format_amqp_1_0_uint(ptr noundef %0, i32 noundef %1, i32 noundef returned %2, ptr noundef writeonly captures(none) initializes((0, 8)) %3) #0 {
  switch i32 %2, label %16 [
    i32 0, label %19
    i32 1, label %5
    i32 2, label %8
    i32 4, label %11
    i32 8, label %14
  ]

5:                                                ; preds = %4
  %6 = tail call zeroext i8 @tvb_get_uint8(ptr noundef %0, i32 noundef %1)
  %7 = zext i8 %6 to i64
  br label %19

8:                                                ; preds = %4
  %9 = tail call zeroext i16 @tvb_get_ntohs(ptr noundef %0, i32 noundef %1)
  %10 = zext i16 %9 to i64
  br label %19

11:                                               ; preds = %4
  %12 = tail call i32 @tvb_get_ntohl(ptr noundef %0, i32 noundef %1)
  %13 = zext i32 %12 to i64
  br label %19

14:                                               ; preds = %4
  %15 = tail call i64 @tvb_get_ntoh64(ptr noundef %0, i32 noundef %1)
  br label %19

16:                                               ; preds = %4
  %17 = tail call ptr @wmem_packet_scope()
  %18 = tail call noalias ptr (ptr, ptr, ...) @wmem_strdup_printf(ptr noundef %17, ptr noundef nonnull @.str.1516, i32 noundef %2)
  br label %22

19:                                               ; preds = %4, %5, %11, %14, %8
  %.0 = phi i64 [ %7, %5 ], [ %10, %8 ], [ %13, %11 ], [ %15, %14 ], [ 0, %4 ]
  %20 = tail call ptr @wmem_packet_scope()
  %21 = tail call noalias ptr (ptr, ptr, ...) @wmem_strdup_printf(ptr noundef %20, ptr noundef nonnull @.str.1579, i64 noundef %.0)
  br label %22

22:                                               ; preds = %19, %16
  %storemerge = phi ptr [ %18, %16 ], [ %21, %19 ]
  store ptr %storemerge, ptr %3, align 8
  ret i32 %2
}